Certificate:
    Data:
        Version: 3 (0x2)
        Serial Number: 1 (0x1)
        Signature Algorithm: sha1WithRSAEncryption
        Issuer: C=CN, ST=BJ, L=beijing, O=zooboa.com, CN=zooboa/emailAddress=zooboa@gmail.com
        Validity
            Not Before: Mar 27 20:47:06 2013 GMT
            Not After : Mar 25 20:47:06 2023 GMT
        Subject: C=CN, ST=BJ, L=beijing, O=zooboa.com, CN=zooboa/emailAddress=zooboa@gmail.com
        Subject Public Key Info:
            Public Key Algorithm: rsaEncryption
                Public-Key: (1024 bit)
                Modulus:
                    00:de:b9:70:b7:31:f1:34:f7:23:7c:65:1b:70:a9:
                    fc:f5:67:ce:1a:76:53:86:7f:2d:8c:89:f5:77:5d:
                    2e:07:3b:49:5c:de:77:5e:67:54:0b:80:d4:2a:31:
                    5d:01:3e:42:20:aa:ed:12:7b:dc:2c:bc:b4:ef:3d:
                    fa:28:be:b7:76:36:4b:98:37:0d:90:b3:37:24:5f:
                    5e:9e:97:93:7e:10:85:db:b7:4a:29:8a:42:11:c2:
                    9c:da:af:de:c9:20:a4:90:00:c1:83:3b:2d:44:f6:
                    ac:57:cf:fe:bc:0e:02:6f:ce:c3:24:23:8f:af:7e:
                    13:62:68:ed:fc:35:ba:96:8b
                Exponent: 65537 (0x10001)
        X509v3 extensions:
            X509v3 Basic Constraints: 
                CA:FALSE
            Netscape Cert Type: 
                SSL Server
            Netscape Comment: 
                Easy-RSA Generated Server Certificate
            X509v3 Subject Key Identifier: 
                D8:88:4D:65:BF:4B:4E:EA:CB:F4:5B:98:3A:2E:9E:87:A2:1C:27:89
            X509v3 Authority Key Identifier: 
                keyid:B2:A0:AD:40:4A:87:74:9D:30:91:87:39:D0:91:25:B7:5A:59:D3:29
                DirName:/C=CN/ST=BJ/L=beijing/O=zooboa.com/CN=zooboa/emailAddress=zooboa@gmail.com
                serial:A5:EE:75:E2:02:72:6A:84

            X509v3 Extended Key Usage: 
                TLS Web Server Authentication
            X509v3 Key Usage: 
                Digital Signature, Key Encipherment
    Signature Algorithm: sha1WithRSAEncryption
        40:e1:5f:fe:d8:82:ba:60:a7:1f:7f:5d:be:53:47:97:a2:a1:
        cd:01:b8:6f:a8:0c:df:ec:0a:9e:04:57:92:0d:a0:57:f6:d2:
        4e:93:1a:dd:3c:9f:7f:54:a8:86:ae:44:04:b3:50:f2:f4:e6:
        e3:4d:dd:d7:1d:4f:8f:b5:f9:36:f2:8a:c6:84:4c:ec:57:b2:
        01:a4:0b:29:fe:86:6b:43:49:03:1d:64:7d:f2:76:43:2c:1e:
        5c:40:74:ba:10:ec:f5:26:7f:4a:63:15:d2:d1:b4:b2:10:a7:
        4e:bd:7b:df:73:5a:75:19:f0:2d:ad:47:b3:87:e8:68:12:da:
        ad:cf
-----BEGIN CERTIFICATE-----
MIIDnzCCAwigAwIBAgIBATANBgkqhkiG9w0BAQUFADBzMQswCQYDVQQGEwJDTjEL
MAkGA1UECBMCQkoxEDAOBgNVBAcTB2JlaWppbmcxEzARBgNVBAoTCnpvb2JvYS5j
b20xDzANBgNVBAMTBnpvb2JvYTEfMB0GCSqGSIb3DQEJARYQem9vYm9hQGdtYWls
LmNvbTAeFw0xMzAzMjcyMDQ3MDZaFw0yMzAzMjUyMDQ3MDZaMHMxCzAJBgNVBAYT
AkNOMQswCQYDVQQIEwJCSjEQMA4GA1UEBxMHYmVpamluZzETMBEGA1UEChMKem9v
Ym9hLmNvbTEPMA0GA1UEAxMGem9vYm9hMR8wHQYJKoZIhvcNAQkBFhB6b29ib2FA
Z21haWwuY29tMIGfMA0GCSqGSIb3DQEBAQUAA4GNADCBiQKBgQDeuXC3MfE09yN8
ZRtwqfz1Z84adlOGfy2MifV3XS4HO0lc3ndeZ1QLgNQqMV0BPkIgqu0Se9wsvLTv
Pfoovrd2NkuYNw2QszckX16el5N+EIXbt0opikIRwpzar97JIKSQAMGDOy1E9qxX
z/68DgJvzsMkI4+vfhNiaO38NbqWiwIDAQABo4IBQTCCAT0wCQYDVR0TBAIwADAR
BglghkgBhvhCAQEEBAMCBkAwNAYJYIZIAYb4QgENBCcWJUVhc3ktUlNBIEdlbmVy
YXRlZCBTZXJ2ZXIgQ2VydGlmaWNhdGUwHQYDVR0OBBYEFNiITWW/S07qy/RbmDou
noeiHCeJMIGlBgNVHSMEgZ0wgZqAFLKgrUBKh3SdMJGHOdCRJbdaWdMpoXekdTBz
MQswCQYDVQQGEwJDTjELMAkGA1UECBMCQkoxEDAOBgNVBAcTB2JlaWppbmcxEzAR
BgNVBAoTCnpvb2JvYS5jb20xDzANBgNVBAMTBnpvb2JvYTEfMB0GCSqGSIb3DQEJ
ARYQem9vYm9hQGdtYWlsLmNvbYIJAKXudeICcmqEMBMGA1UdJQQMMAoGCCsGAQUF
BwMBMAsGA1UdDwQEAwIFoDANBgkqhkiG9w0BAQUFAAOBgQBA4V/+2IK6YKcff12+
U0eXoqHNAbhvqAzf7AqeBFeSDaBX9tJOkxrdPJ9/VKiGrkQEs1Dy9ObjTd3XHU+P
tfk28orGhEzsV7IBpAsp/oZrQ0kDHWR98nZDLB5cQHS6EOz1Jn9KYxXS0bSyEKdO
vXvfc1p1GfAtrUezh+hoEtqtzw==
-----END CERTIFICATE-----
